target datalayout = "e-m:e-p270:32:32-p271:32:32-p272:64:64-i64:64-i128:128-f80:128-n8:16:32:64-S128"
target triple = "x86_64-pc-linux-gnu"

%struct.MPVEncContext = type { %struct.MpegEncContext, %struct.PutBitContext, i32, i32, ptr, i32, i32, i32, i32, i32, i32, i32, i32, ptr, ptr, %struct.FDCTDSPContext, %struct.MpegvideoEncDSPContext, %struct.PixblockDSPContext, %struct.MotionEstContext, i32, i32, ptr, ptr, ptr, ptr, ptr, ptr, [2 x [2 x [2 x ptr]]], [2 x ptr], [2 x [2 x ptr]], ptr, ptr, ptr, ptr, [3 x i64], i32, i32, i32, i32, i32, ptr, ptr, ptr, ptr, ptr, ptr, ptr, [12 x i32], ptr, ptr, ptr, ptr, ptr, ptr, ptr, ptr, [2 x i32], ptr, i32, i32, i32, i32, i32, i32, i32, i32, i32, i32, ptr, ptr, i32, i32, %struct.PutBitContext, %struct.PutBitContext, i32, i32, i32, i32, ptr, ptr, ptr, [2 x ptr], [2 x ptr], [2 x ptr], [2 x ptr], ptr, i32 }
%struct.MpegEncContext = type { ptr, i32, i32, i32, [12 x i32], i32, %struct.ScanTable, %struct.ScanTable, [64 x i8], [64 x i8], ptr, ptr, i32, i32, i32, i32, i32, i32, i32, i32, i32, i32, i32, i32, i32, i32, i32, i32, i32, i32, i32, i32, i64, i64, ptr, %struct.BufferPoolContext, i32, i32, %union.anon, i32, %struct.MPVWorkPicture, %struct.MPVWorkPicture, %struct.MPVWorkPicture, i32, [3 x i32], ptr, [3 x ptr], ptr, ptr, ptr, ptr, ptr, ptr, [3 x ptr], i32, ptr, ptr, ptr, ptr, %struct.ScratchpadContext, i32, i32, i32, i32, i32, i32, %struct.BlockDSPContext, %struct.H264ChromaContext, %struct.HpelDSPContext, %struct.IDCTDSPContext, %struct.QpelDSPContext, %struct.VideoDSPContext, %struct.H263DSPContext, ptr, [2 x [2 x ptr]], i32, i32, [2 x [4 x [2 x i32]]], [2 x [2 x i32]], [2 x [2 x [2 x i32]]], [2 x [64 x i16]], i32, i32, i32, i32, i32, [6 x i32], [6 x i32], [3 x ptr], ptr, [64 x i16], [64 x i16], [64 x i16], [64 x i16], i32, i32, %struct.GetBitContext, i32, i32, i32, i32, i32, i32, i32, i32, i32, i32, i32, i32, i32, i32, i32, i64, i64, i16, i16, i16, i16, i32, i32, i32, i32, i32, i32, i32, i32, i32, [3 x i32], i32, i32, i32, i32, i32, i32, %struct.GetBitContext, i32, [2 x [2 x i32]], i32, i32, i32, i32, i32, i32, i32, i32, i32, i32, i32, i32, i32, i32, [2 x i32], i32, i32, ptr, ptr, ptr, ptr, ptr, i32, i32, %struct.ERContext }
%struct.ScanTable = type { ptr, [64 x i8], [64 x i8] }
%struct.BufferPoolContext = type { ptr, ptr, ptr, ptr, ptr, i32, i32, i32 }
%union.anon = type { [32 x ptr] }
%struct.MPVWorkPicture = type { [3 x ptr], [3 x i64], ptr, ptr, [2 x ptr], ptr, ptr, [2 x ptr], i32 }
%struct.ScratchpadContext = type { ptr, ptr, %union.anon.0, i32 }
%union.anon.0 = type { ptr }
%struct.BlockDSPContext = type { ptr, ptr, [2 x ptr] }
%struct.H264ChromaContext = type { [4 x ptr], [4 x ptr] }
%struct.HpelDSPContext = type { [4 x [4 x ptr]], [4 x [4 x ptr]], [4 x [4 x ptr]], [4 x ptr] }
%struct.IDCTDSPContext = type { ptr, ptr, ptr, ptr, ptr, ptr, [64 x i8], i32, i32 }
%struct.QpelDSPContext = type { [2 x [16 x ptr]], [2 x [16 x ptr]], [2 x [16 x ptr]] }
%struct.VideoDSPContext = type { ptr, ptr }
%struct.H263DSPContext = type { ptr, ptr }
%struct.GetBitContext = type { ptr, ptr, i32, i32, i32 }
%struct.ERContext = type { ptr, ptr, i32, ptr, i32, i32, i32, i64, i64, i32, i32, ptr, ptr, [3 x ptr], ptr, ptr, [2 x [4 x [2 x i32]]], %struct.ERPicture, %struct.ERPicture, %struct.ERPicture, [2 x ptr], [2 x ptr], i16, i16, i32, i32, ptr, ptr }
%struct.ERPicture = type { ptr, ptr, ptr, [2 x ptr], [2 x ptr], ptr, i32 }
%struct.FDCTDSPContext = type { ptr, ptr }
%struct.MpegvideoEncDSPContext = type { ptr, ptr, ptr, ptr, [4 x ptr], ptr }
%struct.PixblockDSPContext = type { ptr, ptr, ptr, ptr }
%struct.MotionEstContext = type { ptr, i32, i32, [4 x [2 x i32]], [4 x [2 x i32]], ptr, ptr, i32, i32, i32, i32, i32, i32, i32, i32, i32, i32, i32, i32, i32, i32, i32, i32, [4 x [4 x ptr]], [4 x [4 x ptr]], i32, i32, i64, i64, i32, [6 x ptr], [6 x ptr], [6 x ptr], [6 x ptr], [2 x [4 x ptr]], ptr, ptr, ptr, ptr, ptr, ptr, ptr, ptr, [64 x i32], [64 x i32] }
%struct.PutBitContext = type { i32, i32, ptr, ptr, ptr }

; Function Attrs: nounwind uwtable
define void @ff_h263_update_mb(ptr noundef %0) #2 {
  %2 = alloca ptr, align 8
  %3 = alloca i32, align 4
  store ptr %0, ptr %2, align 8, !tbaa !20
  call void @llvm.lifetime.start.p0(i64 4, ptr %3) #11
  %4 = load ptr, ptr %2, align 8, !tbaa !20
  %5 = getelementptr inbounds nuw %struct.MPVEncContext, ptr %4, i32 0, i32 0
  %6 = getelementptr inbounds nuw %struct.MpegEncContext, ptr %5, i32 0, i32 83
  %7 = load i32, ptr %6, align 8, !tbaa !66
  %8 = load ptr, ptr %2, align 8, !tbaa !20
  %9 = getelementptr inbounds nuw %struct.MPVEncContext, ptr %8, i32 0, i32 0
  %10 = getelementptr inbounds nuw %struct.MpegEncContext, ptr %9, i32 0, i32 27
  %11 = load i32, ptr %10, align 4, !tbaa !75
  %12 = mul nsw i32 %7, %11
  %13 = load ptr, ptr %2, align 8, !tbaa !20
  %14 = getelementptr inbounds nuw %struct.MPVEncContext, ptr %13, i32 0, i32 0
  %15 = getelementptr inbounds nuw %struct.MpegEncContext, ptr %14, i32 0, i32 82
  %16 = load i32, ptr %15, align 4, !tbaa !64
  %17 = add nsw i32 %12, %16
  store i32 %17, ptr %3, align 4, !tbaa !9
  %18 = load ptr, ptr %2, align 8, !tbaa !20
  %19 = getelementptr inbounds nuw %struct.MPVEncContext, ptr %18, i32 0, i32 0
  %20 = getelementptr inbounds nuw %struct.MpegEncContext, ptr %19, i32 0, i32 42
  %21 = getelementptr inbounds nuw %struct.MPVWorkPicture, ptr %20, i32 0, i32 6
  %22 = load ptr, ptr %21, align 8, !tbaa !76
  %23 = icmp ne ptr %22, null
  br i1 %23, label %24, label %38

24:                                               ; preds = %1
  %25 = load ptr, ptr %2, align 8, !tbaa !20
  %26 = getelementptr inbounds nuw %struct.MPVEncContext, ptr %25, i32 0, i32 0
  %27 = getelementptr inbounds nuw %struct.MpegEncContext, ptr %26, i32 0, i32 54
  %28 = load i32, ptr %27, align 8, !tbaa !77
  %29 = trunc i32 %28 to i8
  %30 = load ptr, ptr %2, align 8, !tbaa !20
  %31 = getelementptr inbounds nuw %struct.MPVEncContext, ptr %30, i32 0, i32 0
  %32 = getelementptr inbounds nuw %struct.MpegEncContext, ptr %31, i32 0, i32 42
  %33 = getelementptr inbounds nuw %struct.MPVWorkPicture, ptr %32, i32 0, i32 6
  %34 = load ptr, ptr %33, align 8, !tbaa !76
  %35 = load i32, ptr %3, align 4, !tbaa !9
  %36 = sext i32 %35 to i64
  %37 = getelementptr inbounds i8, ptr %34, i64 %36
  store i8 %29, ptr %37, align 1, !tbaa !11
  br label %38

38:                                               ; preds = %24, %1
  %39 = load ptr, ptr %2, align 8, !tbaa !20
  %40 = getelementptr inbounds nuw %struct.MPVEncContext, ptr %39, i32 0, i32 0
  %41 = getelementptr inbounds nuw %struct.MpegEncContext, ptr %40, i32 0, i32 76
  %42 = load i32, ptr %41, align 4, !tbaa !78
  %43 = icmp eq i32 %42, 1
  br i1 %43, label %44, label %53

44:                                               ; preds = %38
  %45 = load ptr, ptr %2, align 8, !tbaa !20
  %46 = getelementptr inbounds nuw %struct.MPVEncContext, ptr %45, i32 0, i32 0
  %47 = getelementptr inbounds nuw %struct.MpegEncContext, ptr %46, i32 0, i32 42
  %48 = getelementptr inbounds nuw %struct.MPVWorkPicture, ptr %47, i32 0, i32 5
  %49 = load ptr, ptr %48, align 8, !tbaa !79
  %50 = load i32, ptr %3, align 4, !tbaa !9
  %51 = sext i32 %50 to i64
  %52 = getelementptr inbounds i32, ptr %49, i64 %51
  store i32 4160, ptr %52, align 4, !tbaa !9
  br label %78

53:                                               ; preds = %38
  %54 = load ptr, ptr %2, align 8, !tbaa !20
  %55 = getelementptr inbounds nuw %struct.MPVEncContext, ptr %54, i32 0, i32 0
  %56 = getelementptr inbounds nuw %struct.MpegEncContext, ptr %55, i32 0, i32 85
  %57 = load i32, ptr %56, align 8, !tbaa !80
  %58 = icmp ne i32 %57, 0
  br i1 %58, label %59, label %68

59:                                               ; preds = %53
  %60 = load ptr, ptr %2, align 8, !tbaa !20
  %61 = getelementptr inbounds nuw %struct.MPVEncContext, ptr %60, i32 0, i32 0
  %62 = getelementptr inbounds nuw %struct.MpegEncContext, ptr %61, i32 0, i32 42
  %63 = getelementptr inbounds nuw %struct.MPVWorkPicture, ptr %62, i32 0, i32 5
  %64 = load ptr, ptr %63, align 8, !tbaa !79
  %65 = load i32, ptr %3, align 4, !tbaa !9
  %66 = sext i32 %65 to i64
  %67 = getelementptr inbounds i32, ptr %64, i64 %66
  store i32 1, ptr %67, align 4, !tbaa !9
  br label %77

68:                                               ; preds = %53
  %69 = load ptr, ptr %2, align 8, !tbaa !20
  %70 = getelementptr inbounds nuw %struct.MPVEncContext, ptr %69, i32 0, i32 0
  %71 = getelementptr inbounds nuw %struct.MpegEncContext, ptr %70, i32 0, i32 42
  %72 = getelementptr inbounds nuw %struct.MPVWorkPicture, ptr %71, i32 0, i32 5
  %73 = load ptr, ptr %72, align 8, !tbaa !79
  %74 = load i32, ptr %3, align 4, !tbaa !9
  %75 = sext i32 %74 to i64
  %76 = getelementptr inbounds i32, ptr %73, i64 %75
  store i32 4104, ptr %76, align 4, !tbaa !9
  br label %77

77:                                               ; preds = %68, %59
  br label %78

78:                                               ; preds = %77, %44
  %79 = load ptr, ptr %2, align 8, !tbaa !20
  %80 = getelementptr inbounds nuw %struct.MPVEncContext, ptr %79, i32 0, i32 0
  call void @ff_h263_update_motion_val(ptr noundef %80)
  call void @llvm.lifetime.end.p0(i64 4, ptr %3) #11
  ret void
}