; Function Attrs: nounwind uwtable
define void @ff_h263_update_mb(ptr noundef %0) local_unnamed_addr #2 {
  %2 = getelementptr inbounds nuw i8, ptr %0, i64 3352
  %3 = load i32, ptr %2, align 8, !tbaa !57
  %4 = getelementptr inbounds nuw i8, ptr %0, i64 548
  %5 = load i32, ptr %4, align 4, !tbaa !69
  %6 = mul nsw i32 %5, %3
  %7 = getelementptr inbounds nuw i8, ptr %0, i64 3348
  %8 = load i32, ptr %7, align 4, !tbaa !55
  %9 = add nsw i32 %6, %8
  %10 = getelementptr inbounds nuw i8, ptr %0, i64 1248
  %11 = load ptr, ptr %10, align 8, !tbaa !70
  %.not = icmp eq ptr %11, null
  br i1 %.not, label %18, label %12

12:                                               ; preds = %1
  %13 = getelementptr inbounds nuw i8, ptr %0, i64 1400
  %14 = load i32, ptr %13, align 8, !tbaa !71
  %15 = trunc i32 %14 to i8
  %16 = sext i32 %9 to i64
  %17 = getelementptr inbounds i8, ptr %11, i64 %16
  store i8 %15, ptr %17, align 1, !tbaa !14
  br label %18

18:                                               ; preds = %12, %1
  %19 = getelementptr inbounds nuw i8, ptr %0, i64 2972
  %20 = load i32, ptr %19, align 4, !tbaa !72
  %21 = icmp eq i32 %20, 1
  br i1 %21, label %22, label %27

22:                                               ; preds = %18
  %23 = getelementptr inbounds nuw i8, ptr %0, i64 1240
  %24 = load ptr, ptr %23, align 8, !tbaa !73
  %25 = sext i32 %9 to i64
  %26 = getelementptr inbounds i32, ptr %24, i64 %25
  store i32 4160, ptr %26, align 4, !tbaa !63
  br label %36

27:                                               ; preds = %18
  %28 = getelementptr inbounds nuw i8, ptr %0, i64 3360
  %29 = load i32, ptr %28, align 8, !tbaa !74
  %.not15 = icmp eq i32 %29, 0
  %30 = getelementptr inbounds nuw i8, ptr %0, i64 1240
  %31 = load ptr, ptr %30, align 8, !tbaa !73
  %32 = sext i32 %9 to i64
  %33 = getelementptr inbounds i32, ptr %31, i64 %32
  br i1 %.not15, label %35, label %34

34:                                               ; preds = %27
  store i32 1, ptr %33, align 4, !tbaa !63
  br label %36

35:                                               ; preds = %27
  store i32 4104, ptr %33, align 4, !tbaa !63
  br label %36

36:                                               ; preds = %34, %35, %22
  tail call void @ff_h263_update_motion_val(ptr noundef nonnull %0) #11
  ret void
}